target datalayout = "e-m:e-p270:32:32-p271:32:32-p272:64:64-i64:64-i128:128-f80:128-n8:16:32:64-S128"
target triple = "x86_64-pc-linux-gnu"

%"class.llvm::MachineInstrBuilder" = type { ptr, ptr }
%"class.llvm::Register" = type { i32 }
%"class.llvm::MachineInstrBundleIterator" = type { %"class.llvm::ilist_iterator" }
%"class.llvm::ilist_iterator" = type { ptr }
%"class.llvm::MachineIRBuilder" = type { ptr, %"struct.llvm::MachineIRBuilderState" }
%"struct.llvm::MachineIRBuilderState" = type { ptr, ptr, ptr, %"class.llvm::DebugLoc", ptr, ptr, ptr, %"class.llvm::MachineInstrBundleIterator", ptr, ptr }
%"class.llvm::DebugLoc" = type { %"class.llvm::TypedTrackingMDRef" }
%"class.llvm::TypedTrackingMDRef" = type { %"class.llvm::TrackingMDRef" }
%"class.llvm::TrackingMDRef" = type { ptr }
%"struct.llvm::Align" = type { i8 }
%"struct.llvm::CallLowering::ValueHandler" = type <{ ptr, ptr, ptr, i8, [7 x i8] }>
%"class.llvm::MVT" = type { i16 }
%"class.llvm::LLT" = type { i64 }
%"class.llvm::CCValAssign" = type <{ %"class.std::variant", i32, i8, i8, %"class.llvm::MVT", %"class.llvm::MVT", [6 x i8] }>
%"class.std::variant" = type { %"struct.std::__detail::__variant::_Variant_base.base", [7 x i8] }
%"struct.std::__detail::__variant::_Variant_base.base" = type { %"struct.std::__detail::__variant::_Move_assign_base.base" }
%"struct.std::__detail::__variant::_Move_assign_base.base" = type { %"struct.std::__detail::__variant::_Copy_assign_base.base" }
%"struct.std::__detail::__variant::_Copy_assign_base.base" = type { %"struct.std::__detail::__variant::_Move_ctor_base.base" }
%"struct.std::__detail::__variant::_Move_ctor_base.base" = type { %"struct.std::__detail::__variant::_Copy_ctor_base.base" }
%"struct.std::__detail::__variant::_Copy_ctor_base.base" = type { %"struct.std::__detail::__variant::_Variant_storage.base" }
%"struct.std::__detail::__variant::_Variant_storage.base" = type <{ %"union.std::__detail::__variant::_Variadic_union", i8 }>
%"union.std::__detail::__variant::_Variadic_union" = type { %"union.std::__detail::__variant::_Variadic_union.355" }
%"union.std::__detail::__variant::_Variadic_union.355" = type { %"struct.std::__detail::__variant::_Uninitialized.356" }
%"struct.std::__detail::__variant::_Uninitialized.356" = type { i64 }
%"struct.llvm::MachinePointerInfo" = type <{ %"class.llvm::PointerUnion.361", i64, i32, i8, [3 x i8] }>
%"class.llvm::PointerUnion.361" = type { %"class.llvm::pointer_union_detail::PointerUnionMembers.362" }
%"class.llvm::pointer_union_detail::PointerUnionMembers.362" = type { %"class.llvm::pointer_union_detail::PointerUnionMembers.363" }
%"class.llvm::pointer_union_detail::PointerUnionMembers.363" = type { %"class.llvm::pointer_union_detail::PointerUnionMembers.364" }
%"class.llvm::pointer_union_detail::PointerUnionMembers.364" = type { %"class.llvm::PointerIntPair.365" }
%"class.llvm::PointerIntPair.365" = type { %"struct.llvm::detail::PunnedPointer" }
%"struct.llvm::detail::PunnedPointer" = type { [8 x i8] }
%"class.llvm::SrcOp" = type <{ %union.anon.366, i32, [4 x i8] }>
%union.anon.366 = type { %"class.llvm::MachineInstrBuilder" }
%"struct.llvm::AAMDNodes" = type { ptr, ptr, ptr, ptr }
%"struct.std::__detail::__variant::_Variant_storage" = type <{ %"union.std::__detail::__variant::_Variadic_union", i8, [7 x i8] }>

@.str.1 = private unnamed_addr constant [31 x i8] c"std::get: variant is valueless\00", align 1
@.str.2 = private unnamed_addr constant [34 x i8] c"std::get: wrong index for variant\00", align 1

; Function Attrs: mustprogress nounwind uwtable
define linkonce_odr hidden noundef nonnull align 8 dereferenceable(8) ptr @_ZNKRSt8__detail9__variant14_UninitializedIlLb1EE6_M_getEv(ptr noundef nonnull align 8 dereferenceable(8) %0) #0 comdat align 2 {
  %2 = alloca ptr, align 8
  store ptr %0, ptr %2, align 8
  %3 = load ptr, ptr %2, align 8
  %4 = getelementptr inbounds nuw %"struct.std::__detail::__variant::_Uninitialized.356", ptr %3, i32 0, i32 0
  ret ptr %4
}

; Function Attrs: mustprogress nounwind uwtable
define linkonce_odr noundef nonnull align 8 dereferenceable(8) ptr @_ZNSt8__detail9__variant7__get_nILm1ERKNS0_15_Variadic_unionIJN4llvm8RegisterEljEEEEEDcOT0_(ptr noundef nonnull align 8 dereferenceable(8) %0) #0 comdat {
  %2 = alloca ptr, align 8
  store ptr %0, ptr %2, align 8
  %3 = load ptr, ptr %2, align 8
  %4 = call noundef nonnull align 8 dereferenceable(8) ptr @_ZNKRSt8__detail9__variant14_UninitializedIlLb1EE6_M_getEv(ptr noundef nonnull align 8 dereferenceable(8) %3) #11
  ret ptr %4
}

; Function Attrs: mustprogress nounwind uwtable
define linkonce_odr void @_ZSt26__throw_bad_variant_accessPKc(ptr noundef %0) #0 comdat {
  %2 = alloca ptr, align 8
  store ptr %0, ptr %2, align 8
  call void @abort() #13
  unreachable
}

; Function Attrs: mustprogress nounwind uwtable
define linkonce_odr hidden noundef zeroext i1 @_ZNKSt8__detail9__variant16_Variant_storageILb1EJN4llvm8RegisterEljEE8_M_validEv(ptr noundef nonnull align 8 dereferenceable(9) %0) #0 comdat align 2 {
  %2 = alloca ptr, align 8
  store ptr %0, ptr %2, align 8
  ret i1 true
}

; Function Attrs: mustprogress nounwind uwtable
define linkonce_odr hidden noundef i32 @_ZN4llvm6detail19LeadingZerosCounterImLm8EE5countEm(i64 noundef %0) #0 comdat align 2 {
  %2 = alloca i32, align 4
  %3 = alloca i64, align 8
  store i64 %0, ptr %3, align 8
  %4 = load i64, ptr %3, align 8
  %5 = icmp eq i64 %4, 0
  br i1 %5, label %6, label %7

6:                                                ; preds = %1
  store i32 64, ptr %2, align 4
  br label %11

7:                                                ; preds = %1
  %8 = load i64, ptr %3, align 8
  %9 = call i64 @llvm.ctlz.i64(i64 %8, i1 true)
  %10 = trunc i64 %9 to i32
  store i32 %10, ptr %2, align 4
  br label %11

11:                                               ; preds = %7, %6
  %12 = load i32, ptr %2, align 4
  ret i32 %12
}

; Function Attrs: mustprogress nounwind uwtable
define linkonce_odr noundef nonnull align 8 dereferenceable(8) ptr @_ZNSt8__detail9__variant5__getILm1ERKSt7variantIJN4llvm8RegisterEljEEEEDcOT0_(ptr noundef nonnull align 8 dereferenceable(9) %0) #0 comdat {
  %2 = alloca ptr, align 8
  store ptr %0, ptr %2, align 8
  %3 = load ptr, ptr %2, align 8
  %4 = getelementptr inbounds nuw %"struct.std::__detail::__variant::_Variant_storage", ptr %3, i32 0, i32 0
  %5 = call noundef nonnull align 8 dereferenceable(8) ptr @_ZNSt8__detail9__variant7__get_nILm1ERKNS0_15_Variadic_unionIJN4llvm8RegisterEljEEEEEDcOT0_(ptr noundef nonnull align 8 dereferenceable(8) %4) #11
  ret ptr %5
}

; Function Attrs: mustprogress nounwind uwtable
define linkonce_odr void @_ZSt26__throw_bad_variant_accessb(i1 noundef zeroext %0) #0 comdat {
  %2 = alloca i8, align 1
  %3 = zext i1 %0 to i8
  store i8 %3, ptr %2, align 1
  %4 = load i8, ptr %2, align 1
  %5 = trunc i8 %4 to i1
  br i1 %5, label %6, label %7

6:                                                ; preds = %1
  call void @_ZSt26__throw_bad_variant_accessPKc(ptr noundef @.str.1)
  br label %8

7:                                                ; preds = %1
  call void @_ZSt26__throw_bad_variant_accessPKc(ptr noundef @.str.2)
  br label %8

8:                                                ; preds = %7, %6
  ret void
}

; Function Attrs: mustprogress nounwind uwtable
define linkonce_odr hidden noundef zeroext i1 @_ZNKSt7variantIJN4llvm8RegisterEljEE22valueless_by_exceptionEv(ptr noundef nonnull align 8 dereferenceable(9) %0) #0 comdat align 2 {
  %2 = alloca ptr, align 8
  store ptr %0, ptr %2, align 8
  %3 = load ptr, ptr %2, align 8
  %4 = call noundef zeroext i1 @_ZNKSt8__detail9__variant16_Variant_storageILb1EJN4llvm8RegisterEljEE8_M_validEv(ptr noundef nonnull align 8 dereferenceable(9) %3) #11
  %5 = xor i1 %4, true
  ret i1 %5
}

; Function Attrs: mustprogress nounwind uwtable
define linkonce_odr hidden noundef i64 @_ZNKSt7variantIJN4llvm8RegisterEljEE5indexEv(ptr noundef nonnull align 8 dereferenceable(9) %0) #0 comdat align 2 {
  %2 = alloca ptr, align 8
  store ptr %0, ptr %2, align 8
  %3 = load ptr, ptr %2, align 8
  %4 = getelementptr inbounds nuw %"struct.std::__detail::__variant::_Variant_storage", ptr %3, i32 0, i32 1
  %5 = load i8, ptr %4, align 8
  %6 = zext i8 %5 to i64
  ret i64 %6
}

; Function Attrs: mustprogress nounwind uwtable
define linkonce_odr noundef i32 @_ZN4llvm11countl_zeroImEEiT_(i64 noundef %0) #0 comdat {
  %2 = alloca i64, align 8
  store i64 %0, ptr %2, align 8
  %3 = load i64, ptr %2, align 8
  %4 = call noundef i32 @_ZN4llvm6detail19LeadingZerosCounterImLm8EE5countEm(i64 noundef %3)
  ret i32 %4
}

; Function Attrs: mustprogress nounwind uwtable
define linkonce_odr noundef nonnull align 8 dereferenceable(8) ptr @_ZSt3getILm1EJN4llvm8RegisterEljEERKNSt19variant_alternativeIXT_ESt7variantIJDpT0_EEE4typeERKS6_(ptr noundef nonnull align 8 dereferenceable(9) %0) #0 comdat {
  %2 = alloca ptr, align 8
  store ptr %0, ptr %2, align 8
  %3 = load ptr, ptr %2, align 8
  %4 = call noundef i64 @_ZNKSt7variantIJN4llvm8RegisterEljEE5indexEv(ptr noundef nonnull align 8 dereferenceable(9) %3) #11
  %5 = icmp ne i64 %4, 1
  br i1 %5, label %6, label %9

6:                                                ; preds = %1
  %7 = load ptr, ptr %2, align 8
  %8 = call noundef zeroext i1 @_ZNKSt7variantIJN4llvm8RegisterEljEE22valueless_by_exceptionEv(ptr noundef nonnull align 8 dereferenceable(9) %7) #11
  call void @_ZSt26__throw_bad_variant_accessb(i1 noundef zeroext %8)
  br label %9

9:                                                ; preds = %6, %1
  %10 = load ptr, ptr %2, align 8
  %11 = call noundef nonnull align 8 dereferenceable(8) ptr @_ZNSt8__detail9__variant5__getILm1ERKSt7variantIJN4llvm8RegisterEljEEEEDcOT0_(ptr noundef nonnull align 8 dereferenceable(9) %10) #11
  ret ptr %11
}

; Function Attrs: mustprogress nounwind uwtable
define linkonce_odr hidden noundef i64 @_ZN4llvm8MinAlignEmm(i64 noundef %0, i64 noundef %1) #0 comdat {
  %3 = alloca i64, align 8
  %4 = alloca i64, align 8
  store i64 %0, ptr %3, align 8
  store i64 %1, ptr %4, align 8
  %5 = load i64, ptr %3, align 8
  %6 = load i64, ptr %4, align 8
  %7 = or i64 %5, %6
  %8 = load i64, ptr %3, align 8
  %9 = load i64, ptr %4, align 8
  %10 = or i64 %8, %9
  %11 = xor i64 %10, -1
  %12 = add i64 1, %11
  %13 = and i64 %7, %12
  ret i64 %13
}

; Function Attrs: mustprogress nounwind uwtable
define linkonce_odr hidden noundef i64 @_ZNK4llvm5Align5valueEv(ptr noundef nonnull align 1 dereferenceable(1) %0) #0 comdat align 2 {
  %2 = alloca ptr, align 8
  store ptr %0, ptr %2, align 8
  %3 = load ptr, ptr %2, align 8
  %4 = getelementptr inbounds nuw %"struct.llvm::Align", ptr %3, i32 0, i32 0
  %5 = load i8, ptr %4, align 1
  %6 = zext i8 %5 to i32
  %7 = zext i32 %6 to i64
  %8 = shl i64 1, %7
  ret i64 %8
}

; Function Attrs: mustprogress nounwind uwtable
define linkonce_odr hidden noundef i32 @_ZN4llvm7Log2_64Em(i64 noundef %0) #0 comdat {
  %2 = alloca i64, align 8
  store i64 %0, ptr %2, align 8
  %3 = load i64, ptr %2, align 8
  %4 = call noundef i32 @_ZN4llvm11countl_zeroImEEiT_(i64 noundef %3)
  %5 = sub nsw i32 63, %4
  ret i32 %5
}

; Function Attrs: mustprogress nounwind uwtable
define linkonce_odr noundef nonnull align 8 dereferenceable(8) ptr @_ZSt3getIlJN4llvm8RegisterEljEERKT_RKSt7variantIJDpT0_EE(ptr noundef nonnull align 8 dereferenceable(9) %0) #0 comdat {
  %2 = alloca ptr, align 8
  %3 = alloca i64, align 8
  store ptr %0, ptr %2, align 8
  store i64 1, ptr %3, align 8
  %4 = load ptr, ptr %2, align 8
  %5 = call noundef nonnull align 8 dereferenceable(8) ptr @_ZSt3getILm1EJN4llvm8RegisterEljEERKNSt19variant_alternativeIXT_ESt7variantIJDpT0_EEE4typeERKS6_(ptr noundef nonnull align 8 dereferenceable(9) %4)
  ret ptr %5
}

; Function Attrs: mustprogress nounwind uwtable
define linkonce_odr hidden void @_ZN4llvm5SrcOpC2ENS_8RegisterE(ptr noundef nonnull align 8 dereferenceable(20) %0, i32 %1) unnamed_addr #0 comdat align 2 {
  %3 = alloca %"class.llvm::Register", align 4
  %4 = alloca ptr, align 8
  %5 = getelementptr inbounds nuw %"class.llvm::Register", ptr %3, i32 0, i32 0
  store i32 %1, ptr %5, align 4
  store ptr %0, ptr %4, align 8
  %6 = load ptr, ptr %4, align 8
  %7 = getelementptr inbounds nuw %"class.llvm::SrcOp", ptr %6, i32 0, i32 0
  call void @llvm.memcpy.p0.p0.i64(ptr align 8 %7, ptr align 4 %3, i64 4, i1 false)
  %8 = getelementptr inbounds nuw %"class.llvm::SrcOp", ptr %6, i32 0, i32 1
  store i32 0, ptr %8, align 8
  ret void
}

; Function Attrs: mustprogress nounwind uwtable
define linkonce_odr hidden void @_ZN4llvm9AAMDNodesC2Ev(ptr noundef nonnull align 8 dereferenceable(32) %0) unnamed_addr #0 comdat align 2 {
  %2 = alloca ptr, align 8
  store ptr %0, ptr %2, align 8
  %3 = load ptr, ptr %2, align 8
  %4 = getelementptr inbounds nuw %"struct.llvm::AAMDNodes", ptr %3, i32 0, i32 0
  store ptr null, ptr %4, align 8
  %5 = getelementptr inbounds nuw %"struct.llvm::AAMDNodes", ptr %3, i32 0, i32 1
  store ptr null, ptr %5, align 8
  %6 = getelementptr inbounds nuw %"struct.llvm::AAMDNodes", ptr %3, i32 0, i32 2
  store ptr null, ptr %6, align 8
  %7 = getelementptr inbounds nuw %"struct.llvm::AAMDNodes", ptr %3, i32 0, i32 3
  store ptr null, ptr %7, align 8
  ret void
}

; Function Attrs: mustprogress nounwind uwtable
define linkonce_odr hidden i8 @_ZN4llvm15commonAlignmentENS_5AlignEm(i8 %0, i64 noundef %1) #0 comdat {
  %3 = alloca %"struct.llvm::Align", align 1
  %4 = alloca %"struct.llvm::Align", align 1
  %5 = alloca i64, align 8
  %6 = getelementptr inbounds nuw %"struct.llvm::Align", ptr %4, i32 0, i32 0
  store i8 %0, ptr %6, align 1
  store i64 %1, ptr %5, align 8
  %7 = call noundef i64 @_ZNK4llvm5Align5valueEv(ptr noundef nonnull align 1 dereferenceable(1) %4)
  %8 = load i64, ptr %5, align 8
  %9 = call noundef i64 @_ZN4llvm8MinAlignEmm(i64 noundef %7, i64 noundef %8)
  call void @_ZN4llvm5AlignC2Em(ptr noundef nonnull align 1 dereferenceable(1) %3, i64 noundef %9)
  %10 = getelementptr inbounds nuw %"struct.llvm::Align", ptr %3, i32 0, i32 0
  %11 = load i8, ptr %10, align 1
  ret i8 %11
}

; Function Attrs: mustprogress nounwind uwtable
define linkonce_odr hidden void @_ZN4llvm5AlignC2Em(ptr noundef nonnull align 1 dereferenceable(1) %0, i64 noundef %1) unnamed_addr #0 comdat align 2 {
  %3 = alloca ptr, align 8
  %4 = alloca i64, align 8
  store ptr %0, ptr %3, align 8
  store i64 %1, ptr %4, align 8
  %5 = load ptr, ptr %3, align 8
  %6 = getelementptr inbounds nuw %"struct.llvm::Align", ptr %5, i32 0, i32 0
  store i8 0, ptr %6, align 1
  %7 = load i64, ptr %4, align 8
  %8 = call noundef i32 @_ZN4llvm7Log2_64Em(i64 noundef %7)
  %9 = trunc i32 %8 to i8
  %10 = getelementptr inbounds nuw %"struct.llvm::Align", ptr %5, i32 0, i32 0
  store i8 %9, ptr %10, align 1
  ret void
}

; Function Attrs: mustprogress nounwind uwtable
define linkonce_odr hidden noundef i64 @_ZNK4llvm11CCValAssign15getLocMemOffsetEv(ptr noundef nonnull align 8 dereferenceable(26) %0) #0 comdat align 2 {
  %2 = alloca ptr, align 8
  store ptr %0, ptr %2, align 8
  %3 = load ptr, ptr %2, align 8
  %4 = getelementptr inbounds nuw %"class.llvm::CCValAssign", ptr %3, i32 0, i32 0
  %5 = call noundef nonnull align 8 dereferenceable(8) ptr @_ZSt3getIlJN4llvm8RegisterEljEERKT_RKSt7variantIJDpT0_EE(ptr noundef nonnull align 8 dereferenceable(9) %4)
  %6 = load i64, ptr %5, align 8
  ret i64 %6
}

; Function Attrs: mustprogress nounwind uwtable
define linkonce_odr hidden noundef nonnull align 8 dereferenceable(1041) ptr @_ZN4llvm16MachineIRBuilder5getMFEv(ptr noundef nonnull align 8 dereferenceable(88) %0) #0 comdat align 2 {
  %2 = alloca ptr, align 8
  store ptr %0, ptr %2, align 8
  %3 = load ptr, ptr %2, align 8
  %4 = getelementptr inbounds nuw %"class.llvm::MachineIRBuilder", ptr %3, i32 0, i32 1
  %5 = getelementptr inbounds nuw %"struct.llvm::MachineIRBuilderState", ptr %4, i32 0, i32 0
  %6 = load ptr, ptr %5, align 8
  ret ptr %6
}

; Function Attrs: mustprogress nounwind uwtable
define internal void @_ZN12_GLOBAL__N_125RISCVOutgoingValueHandler20assignValueToAddressEN4llvm8RegisterES2_NS1_3LLTERKNS1_18MachinePointerInfoERKNS1_11CCValAssignE(ptr noundef nonnull align 8 dereferenceable(64) %0, i32 %1, i32 %2, i64 %3, ptr noundef nonnull align 8 dereferenceable(21) %4, ptr noundef nonnull align 8 dereferenceable(26) %5) unnamed_addr #0 align 2 {
  %7 = alloca %"class.llvm::Register", align 4
  %8 = alloca %"class.llvm::Register", align 4
  %9 = alloca %"class.llvm::LLT", align 8
  %10 = alloca ptr, align 8
  %11 = alloca ptr, align 8
  %12 = alloca ptr, align 8
  %13 = alloca ptr, align 8
  %14 = alloca i64, align 8
  %15 = alloca ptr, align 8
  %16 = alloca %"struct.llvm::MachinePointerInfo", align 8
  %17 = alloca %"class.llvm::LLT", align 8
  %18 = alloca %"struct.llvm::Align", align 1
  %19 = alloca %"struct.llvm::Align", align 1
  %20 = alloca %"struct.llvm::AAMDNodes", align 8
  %21 = alloca %"class.llvm::Register", align 4
  %22 = alloca %"class.llvm::Register", align 4
  %23 = alloca %"class.llvm::SrcOp", align 8
  %24 = alloca %"class.llvm::Register", align 4
  %25 = alloca %"class.llvm::SrcOp", align 8
  %26 = alloca %"class.llvm::Register", align 4
  %27 = alloca %"class.llvm::MachineInstrBuilder", align 8
  %28 = getelementptr inbounds nuw %"class.llvm::Register", ptr %7, i32 0, i32 0
  store i32 %1, ptr %28, align 4
  %29 = getelementptr inbounds nuw %"class.llvm::Register", ptr %8, i32 0, i32 0
  store i32 %2, ptr %29, align 4
  %30 = getelementptr inbounds nuw %"class.llvm::LLT", ptr %9, i32 0, i32 0
  store i64 %3, ptr %30, align 8
  store ptr %0, ptr %10, align 8
  store ptr %4, ptr %11, align 8
  store ptr %5, ptr %12, align 8
  %31 = load ptr, ptr %10, align 8
  %32 = getelementptr inbounds nuw %"struct.llvm::CallLowering::ValueHandler", ptr %31, i32 0, i32 1
  %33 = load ptr, ptr %32, align 8
  %34 = call noundef nonnull align 8 dereferenceable(1041) ptr @_ZN4llvm16MachineIRBuilder5getMFEv(ptr noundef nonnull align 8 dereferenceable(88) %33)
  store ptr %34, ptr %13, align 8
  %35 = load ptr, ptr %12, align 8
  %36 = call noundef i64 @_ZNK4llvm11CCValAssign15getLocMemOffsetEv(ptr noundef nonnull align 8 dereferenceable(26) %35)
  store i64 %36, ptr %14, align 8
  %37 = load ptr, ptr %13, align 8
  %38 = load ptr, ptr %11, align 8
  call void @llvm.memcpy.p0.p0.i64(ptr align 8 %16, ptr align 8 %38, i64 24, i1 false)
  call void @llvm.memcpy.p0.p0.i64(ptr align 8 %17, ptr align 8 %9, i64 8, i1 false)
  call void @_ZN4llvm5AlignC2Em(ptr noundef nonnull align 1 dereferenceable(1) %19, i64 noundef 16)
  %39 = load i64, ptr %14, align 8
  %40 = getelementptr inbounds nuw %"struct.llvm::Align", ptr %19, i32 0, i32 0
  %41 = load i8, ptr %40, align 1
  %42 = call i8 @_ZN4llvm15commonAlignmentENS_5AlignEm(i8 %41, i64 noundef %39)
  %43 = getelementptr inbounds nuw %"struct.llvm::Align", ptr %18, i32 0, i32 0
  store i8 %42, ptr %43, align 1
  call void @llvm.memset.p0.i64(ptr align 8 %20, i8 0, i64 32, i1 false)
  call void @_ZN4llvm9AAMDNodesC2Ev(ptr noundef nonnull align 8 dereferenceable(32) %20) #11
  %44 = getelementptr inbounds nuw %"class.llvm::LLT", ptr %17, i32 0, i32 0
  %45 = load i64, ptr %44, align 8
  %46 = getelementptr inbounds nuw %"struct.llvm::Align", ptr %18, i32 0, i32 0
  %47 = load i8, ptr %46, align 1
  %48 = call noundef ptr @_ZN4llvm15MachineFunction20getMachineMemOperandENS_18MachinePointerInfoENS_17MachineMemOperand5FlagsENS_3LLTENS_5AlignERKNS_9AAMDNodesEPKNS_6MDNodeEhNS_14AtomicOrderingESC_(ptr noundef nonnull align 8 dereferenceable(1041) %37, ptr noundef byval(%"struct.llvm::MachinePointerInfo") align 8 %16, i16 noundef zeroext 2, i64 %45, i8 %47, ptr noundef nonnull align 8 dereferenceable(32) %20, ptr noundef null, i8 noundef zeroext 1, i32 noundef 0, i32 noundef 0)
  store ptr %48, ptr %15, align 8
  call void @llvm.memcpy.p0.p0.i64(ptr align 4 %22, ptr align 4 %7, i64 4, i1 false)
  %49 = load ptr, ptr %12, align 8
  %50 = getelementptr inbounds nuw %"class.llvm::Register", ptr %22, i32 0, i32 0
  %51 = load i32, ptr %50, align 4
  %52 = call i32 @_ZN4llvm12CallLowering12ValueHandler14extendRegisterENS_8RegisterERKNS_11CCValAssignEj(ptr noundef nonnull align 8 dereferenceable(25) %31, i32 %51, ptr noundef nonnull align 8 dereferenceable(26) %49, i32 noundef 0)
  %53 = getelementptr inbounds nuw %"class.llvm::Register", ptr %21, i32 0, i32 0
  store i32 %52, ptr %53, align 4
  %54 = getelementptr inbounds nuw %"struct.llvm::CallLowering::ValueHandler", ptr %31, i32 0, i32 1
  %55 = load ptr, ptr %54, align 8
  call void @llvm.memcpy.p0.p0.i64(ptr align 4 %24, ptr align 4 %21, i64 4, i1 false)
  %56 = getelementptr inbounds nuw %"class.llvm::Register", ptr %24, i32 0, i32 0
  %57 = load i32, ptr %56, align 4
  call void @_ZN4llvm5SrcOpC2ENS_8RegisterE(ptr noundef nonnull align 8 dereferenceable(20) %23, i32 %57)
  call void @llvm.memcpy.p0.p0.i64(ptr align 4 %26, ptr align 4 %8, i64 4, i1 false)
  %58 = getelementptr inbounds nuw %"class.llvm::Register", ptr %26, i32 0, i32 0
  %59 = load i32, ptr %58, align 4
  call void @_ZN4llvm5SrcOpC2ENS_8RegisterE(ptr noundef nonnull align 8 dereferenceable(20) %25, i32 %59)
  %60 = load ptr, ptr %15, align 8
  %61 = call { ptr, ptr } @_ZN4llvm16MachineIRBuilder10buildStoreERKNS_5SrcOpES3_RNS_17MachineMemOperandE(ptr noundef nonnull align 8 dereferenceable(88) %55, ptr noundef nonnull align 8 dereferenceable(20) %23, ptr noundef nonnull align 8 dereferenceable(20) %25, ptr noundef nonnull align 8 dereferenceable(80) %60)
  %62 = getelementptr inbounds nuw { ptr, ptr }, ptr %27, i32 0, i32 0
  %63 = extractvalue { ptr, ptr } %61, 0
  store ptr %63, ptr %62, align 8
  %64 = getelementptr inbounds nuw { ptr, ptr }, ptr %27, i32 0, i32 1
  %65 = extractvalue { ptr, ptr } %61, 1
  store ptr %65, ptr %64, align 8
  ret void
}