; Function Attrs: mustprogress nounwind uwtable
define internal void @_ZN12_GLOBAL__N_125RISCVOutgoingValueHandler20assignValueToAddressEN4llvm8RegisterES2_NS1_3LLTERKNS1_18MachinePointerInfoERKNS1_11CCValAssignE(ptr noundef nonnull align 8 dereferenceable(64) %0, i32 %1, i32 %2, i64 %3, ptr noundef nonnull readonly align 8 captures(none) dereferenceable(21) %4, ptr noundef nonnull align 8 dereferenceable(26) %5) unnamed_addr #1 align 2 {
  %7 = alloca %"struct.llvm::AAMDNodes", align 8
  %8 = alloca %"class.llvm::SrcOp", align 8
  %9 = alloca %"class.llvm::SrcOp", align 8
  %10 = getelementptr inbounds nuw i8, ptr %5, i64 8
  %11 = load i8, ptr %10, align 8
  %.not.i.i.i = icmp eq i8 %11, 1
  br i1 %.not.i.i.i, label %_ZNK4llvm11CCValAssign15getLocMemOffsetEv.exit, label %12

12:                                               ; preds = %6
  tail call void @abort() #18
  unreachable

_ZNK4llvm11CCValAssign15getLocMemOffsetEv.exit:   ; preds = %6
  %13 = getelementptr inbounds nuw i8, ptr %0, i64 8
  %14 = load ptr, ptr %13, align 8
  %15 = getelementptr inbounds nuw i8, ptr %14, i64 8
  %16 = load ptr, ptr %15, align 8
  %17 = load i64, ptr %5, align 8
  %18 = or i64 %17, 16
  %19 = sub nsw i64 0, %18
  %20 = and i64 %18, %19
  %21 = tail call range(i64 0, 65) i64 @llvm.ctlz.i64(i64 %20, i1 false)
  %22 = trunc nuw nsw i64 %21 to i8
  %23 = sub nsw i8 63, %22
  call void @llvm.memset.p0.i64(ptr noundef nonnull align 8 dereferenceable(32) %7, i8 0, i64 32, i1 false)
  %24 = call noundef ptr @_ZN4llvm15MachineFunction20getMachineMemOperandENS_18MachinePointerInfoENS_17MachineMemOperand5FlagsENS_3LLTENS_5AlignERKNS_9AAMDNodesEPKNS_6MDNodeEhNS_14AtomicOrderingESC_(ptr noundef nonnull align 8 dereferenceable(1041) %16, ptr noundef nonnull byval(%"struct.llvm::MachinePointerInfo") align 8 %4, i16 noundef zeroext 2, i64 %3, i8 %23, ptr noundef nonnull align 8 dereferenceable(32) %7, ptr noundef null, i8 noundef zeroext 1, i32 noundef 0, i32 noundef 0) #16
  %25 = call i32 @_ZN4llvm12CallLowering12ValueHandler14extendRegisterENS_8RegisterERKNS_11CCValAssignEj(ptr noundef nonnull align 8 dereferenceable(25) %0, i32 %1, ptr noundef nonnull align 8 dereferenceable(26) %5, i32 noundef 0) #16
  %26 = load ptr, ptr %13, align 8
  store i32 %25, ptr %8, align 8
  %27 = getelementptr inbounds nuw i8, ptr %8, i64 16
  store i32 0, ptr %27, align 8
  store i32 %2, ptr %9, align 8
  %28 = getelementptr inbounds nuw i8, ptr %9, i64 16
  store i32 0, ptr %28, align 8
  %29 = call { ptr, ptr } @_ZN4llvm16MachineIRBuilder10buildStoreERKNS_5SrcOpES3_RNS_17MachineMemOperandE(ptr noundef nonnull align 8 dereferenceable(88) %26, ptr noundef nonnull align 8 dereferenceable(20) %8, ptr noundef nonnull align 8 dereferenceable(20) %9, ptr noundef nonnull align 8 dereferenceable(80) %24) #16
  ret void
}